Certificate:
    Data:
        Version: 1 (0x0)
        Serial Number: 1 (0x1)
        Signature Algorithm: md5WithRSAEncryption
        Issuer: C=CN, ST=GuangZhou, L=GZ, O=Arcadyan, OU=ArcadyanGZ, CN=www.httpd.org/emailAddress=arcadyan_ac@arcadyan.com
        Validity
            Not Before: Nov  8 05:20:13 2013 GMT
            Not After : Nov  6 05:20:13 2023 GMT
        Subject: C=CN, ST=GuangZhou, L=GZ, O=Arcadyan, OU=ArcadyanGZ, CN=www.httpd.org/emailAddress=GZ@arcadyan.com.cn
        Subject Public Key Info:
            Public Key Algorithm: rsaEncryption
                Public-Key: (1024 bit)
                Modulus:
                    00:c7:ad:af:92:08:24:09:bb:f0:15:d0:c3:96:b8:
                    c7:8f:fc:1c:5c:81:71:97:49:cb:17:6d:5c:c4:7f:
                    a7:79:f0:cf:77:a6:88:71:ea:cf:37:6c:ac:16:37:
                    93:64:50:cc:87:03:5a:c9:b4:a0:07:9f:15:14:e7:
                    3e:9f:5f:3f:db:6f:c8:a0:9f:15:42:95:35:12:78:
                    0f:d9:e4:f9:26:a3:bb:2c:24:50:26:b5:d8:9f:d3:
                    9e:c9:84:a8:fd:91:da:70:86:9b:25:3f:ac:38:b3:
                    6a:69:92:7d:67:46:b3:70:45:ba:80:7a:c7:bc:6c:
                    11:b1:dc:f7:42:44:2f:17:69
                Exponent: 65537 (0x10001)
    Signature Algorithm: md5WithRSAEncryption
        03:63:39:cc:6e:97:c5:bd:6a:47:62:bb:72:09:cf:f1:29:7c:
        24:e7:dd:47:ca:35:bf:36:8e:a2:9c:9a:30:10:4d:98:99:c8:
        b7:93:27:c8:f3:6e:01:89:8d:c7:10:d5:bc:fb:2b:64:69:88:
        80:79:ee:6c:aa:c0:e4:ef:72:8c:09:4d:a8:47:2b:49:aa:a8:
        72:b8:b6:d3:f3:f4:1e:94:91:5f:0a:72:40:85:32:33:87:8b:
        ac:a6:26:af:85:38:2e:7c:53:3b:5b:95:f8:60:aa:57:a2:73:
        07:59:90:1e:2e:57:6c:9f:16:dd:05:a4:d3:b8:a6:60:74:f9:
        66:25
-----BEGIN CERTIFICATE-----
MIICmTCCAgICAQEwDQYJKoZIhvcNAQEEBQAwgZcxCzAJBgNVBAYTAkNOMRIwEAYD
VQQIDAlHdWFuZ1pob3UxCzAJBgNVBAcMAkdaMREwDwYDVQQKDAhBcmNhZHlhbjET
MBEGA1UECwwKQXJjYWR5YW5HWjEWMBQGA1UEAwwNd3d3Lmh0dHBkLm9yZzEnMCUG
CSqGSIb3DQEJARYYYXJjYWR5YW5fYWNAYXJjYWR5YW4uY29tMB4XDTEzMTEwODA1
MjAxM1oXDTIzMTEwNjA1MjAxM1owgZExCzAJBgNVBAYTAkNOMRIwEAYDVQQIDAlH
dWFuZ1pob3UxCzAJBgNVBAcMAkdaMREwDwYDVQQKDAhBcmNhZHlhbjETMBEGA1UE
CwwKQXJjYWR5YW5HWjEWMBQGA1UEAwwNd3d3Lmh0dHBkLm9yZzEhMB8GCSqGSIb3
DQEJARYSR1pAYXJjYWR5YW4uY29tLmNuMIGfMA0GCSqGSIb3DQEBAQUAA4GNADCB
iQKBgQDHra+SCCQJu/AV0MOWuMeP/BxcgXGXScsXbVzEf6d58M93pohx6s83bKwW
N5NkUMyHA1rJtKAHnxUU5z6fXz/bb8ignxVClTUSeA/Z5Pkmo7ssJFAmtdif057J
hKj9kdpwhpslP6w4s2ppkn1nRrNwRbqAese8bBGx3PdCRC8XaQIDAQABMA0GCSqG
SIb3DQEBBAUAA4GBAANjOcxul8W9akdiu3IJz/EpfCTn3UfKNb82jqKcmjAQTZiZ
yLeTJ8jzbgGJjccQ1bz7K2RpiIB57myqwOTvcowJTahHK0mqqHK4ttPz9B6UkV8K
ckCFMjOHi6ymJq+FOC58UztblfhgqleicwdZkB4uV2yfFt0FpNO4pmB0+WYl
-----END CERTIFICATE-----
