Certificate:
    Data:
        Version: 3 (0x2)
        Serial Number: 1 (0x1)
    Signature Algorithm: sha1WithRSAEncryption
        Issuer: C=AT, ST=vna, L=vna, O=A1, OU=A1, CN=A1-Mesh-WLAN.home/emailAddress=A1@gmail.com
        Validity
            Not Before: Apr  7 07:52:58 2017 GMT
            Not After : Apr  5 07:52:58 2027 GMT
        Subject: C=AT, ST=vna, O=A1, OU=A1, CN=A1-Mesh-WLAN.home/emailAddress=A1@gmail.com
        Subject Public Key Info:
            Public Key Algorithm: rsaEncryption
                Public-Key: (1024 bit)
                Modulus:
                    00:9a:a5:fa:ef:24:8e:f7:df:df:24:47:05:fa:43:
                    1c:38:6c:fc:6a:14:28:09:8e:e5:a5:b2:00:3f:98:
                    ac:16:01:ce:17:29:b3:79:a7:b2:00:6f:64:4b:b3:
                    fe:89:93:bf:b6:8d:d7:1d:0e:5d:c9:29:cf:87:ed:
                    5b:74:cb:90:e8:30:16:93:cf:66:3f:56:2e:83:41:
                    9b:8d:c5:d4:3f:2e:7f:6b:1b:2d:9f:ce:54:35:a8:
                    bf:42:0b:6d:98:ee:2c:c4:f2:6b:98:55:d3:6c:86:
                    69:fb:14:fb:a2:2d:76:d4:e2:ec:7d:fe:a0:26:bd:
                    ad:34:29:e7:df:fd:e4:7f:bd
                Exponent: 65537 (0x10001)
        X509v3 extensions:
            X509v3 Basic Constraints: 
                CA:FALSE
            Netscape Comment: 
                OpenSSL Generated Certificate
            X509v3 Subject Key Identifier: 
                F4:16:8D:DD:BD:65:5C:51:35:DD:16:D5:F0:6F:46:19:F0:E0:21:6E
            X509v3 Authority Key Identifier: 
                keyid:3A:0E:66:98:F1:99:ED:90:54:9D:A9:B9:CC:92:E1:4A:FE:13:68:AF

    Signature Algorithm: sha1WithRSAEncryption
         7e:b3:a9:db:b0:1a:60:a5:c3:33:4e:e9:02:61:0e:d4:c8:dc:
         ba:b3:83:4d:be:ab:df:72:b6:d0:66:1b:27:44:df:7d:99:c1:
         31:19:61:5c:6b:42:95:3e:85:98:f9:61:1a:56:da:7b:13:bc:
         ef:04:fc:6c:1e:05:ab:5c:24:26:03:c7:d1:12:72:23:ce:6e:
         a5:08:c8:d1:a8:8a:81:69:eb:07:16:a0:bd:19:c9:a4:de:ef:
         a7:2f:db:8f:e0:d4:28:31:51:1e:69:ad:b6:11:69:28:ef:aa:
         e6:c0:62:9b:00:27:63:ed:52:48:ed:11:32:ee:f6:18:94:a7:
         78:7d
-----BEGIN CERTIFICATE-----
MIIC2zCCAkSgAwIBAgIBATANBgkqhkiG9w0BAQUFADB8MQswCQYDVQQGEwJBVDEM
MAoGA1UECAwDdm5hMQwwCgYDVQQHDAN2bmExCzAJBgNVBAoMAkExMQswCQYDVQQL
DAJBMTEaMBgGA1UEAwwRQTEtTWVzaC1XTEFOLmhvbWUxGzAZBgkqhkiG9w0BCQEW
DEExQGdtYWlsLmNvbTAeFw0xNzA0MDcwNzUyNThaFw0yNzA0MDUwNzUyNThaMG4x
CzAJBgNVBAYTAkFUMQwwCgYDVQQIDAN2bmExCzAJBgNVBAoMAkExMQswCQYDVQQL
DAJBMTEaMBgGA1UEAwwRQTEtTWVzaC1XTEFOLmhvbWUxGzAZBgkqhkiG9w0BCQEW
DEExQGdtYWlsLmNvbTCBnzANBgkqhkiG9w0BAQEFAAOBjQAwgYkCgYEAmqX67ySO
99/fJEcF+kMcOGz8ahQoCY7lpbIAP5isFgHOFymzeaeyAG9kS7P+iZO/to3XHQ5d
ySnPh+1bdMuQ6DAWk89mP1Yug0GbjcXUPy5/axstn85UNai/QgttmO4sxPJrmFXT
bIZp+xT7oi121OLsff6gJr2tNCnn3/3kf70CAwEAAaN7MHkwCQYDVR0TBAIwADAs
BglghkgBhvhCAQ0EHxYdT3BlblNTTCBHZW5lcmF0ZWQgQ2VydGlmaWNhdGUwHQYD
VR0OBBYEFPQWjd29ZVxRNd0W1fBvRhnw4CFuMB8GA1UdIwQYMBaAFDoOZpjxme2Q
VJ2pucyS4Ur+E2ivMA0GCSqGSIb3DQEBBQUAA4GBAH6zqduwGmClwzNO6QJhDtTI
3Lqzg02+q99yttBmGydE332ZwTEZYVxrQpU+hZj5YRpW2nsTvO8E/GweBatcJCYD
x9ESciPObqUIyNGoioFp6wcWoL0ZyaTe76cv24/g1CgxUR5prbYRaSjvqubAYpsA
J2PtUkjtETLu9hiUp3h9
-----END CERTIFICATE-----
